; ModuleID = 'probe1.cc9399173ee06644-cgu.0'
source_filename = "probe1.cc9399173ee06644-cgu.0"
target datalayout = "e-m:o-i64:64-i128:128-n32:64-S128"
target triple = "arm64-apple-macosx11.0.0"

%"core::fmt::Arguments<'_>" = type { { ptr, i64 }, { ptr, i64 }, { ptr, i64 } }
%"alloc::string::String" = type { %"alloc::vec::Vec<u8>" }
%"alloc::vec::Vec<u8>" = type { { i64, ptr }, i64 }
%"core::ptr::metadata::PtrRepr<[u8]>" = type { [2 x i64] }
%"alloc::alloc::Global" = type {}
%"core::option::Option<(core::ptr::non_null::NonNull<u8>, core::alloc::layout::Layout)>" = type { [2 x i64], i64 }

@alloc_2a62ba4d4fa46537b277796d74f8c568 = private unnamed_addr constant <{}> zeroinitializer, align 8
@alloc_91c7fa63c3cfeaa3c795652d5cf060e4 = private unnamed_addr constant <{ [12 x i8] }> <{ [12 x i8] c"invalid args" }>, align 1
@alloc_560206a49c61adca6f3f0639a12632eb = private unnamed_addr constant <{ ptr, [8 x i8] }> <{ ptr @alloc_91c7fa63c3cfeaa3c795652d5cf060e4, [8 x i8] c"\0C\00\00\00\00\00\00\00" }>, align 8
@alloc_4346da2c04ea5eb84f0b042a26f5ad39 = private unnamed_addr constant <{ [75 x i8] }> <{ [75 x i8] c"/rustc/7f94b314cead7059a71a265a8b64905ef2511796/library/core/src/fmt/mod.rs" }>, align 1
@alloc_3ba4cd508f286e2d4eec7a245f0dfbda = private unnamed_addr constant <{ ptr, [16 x i8] }> <{ ptr @alloc_4346da2c04ea5eb84f0b042a26f5ad39, [16 x i8] c"K\00\00\00\00\00\00\00\99\01\00\00\0D\00\00\00" }>, align 8
@alloc_3b370f4869d63c83f074923041c821a8 = private unnamed_addr constant <{ [80 x i8] }> <{ [80 x i8] c"/rustc/7f94b314cead7059a71a265a8b64905ef2511796/library/core/src/alloc/layout.rs" }>, align 1
@alloc_47e59e7b74d19d7797d2c7148153ea1a = private unnamed_addr constant <{ ptr, [16 x i8] }> <{ ptr @alloc_3b370f4869d63c83f074923041c821a8, [16 x i8] c"P\00\00\00\00\00\00\00\BF\01\00\00)\00\00\00" }>, align 8
@str.0 = internal constant [25 x i8] c"attempt to divide by zero"
@alloc_ffa3cdb3ae88e54a1cc225f31dd07672 = private unnamed_addr constant <{ ptr, [8 x i8] }> <{ ptr @alloc_2a62ba4d4fa46537b277796d74f8c568, [8 x i8] zeroinitializer }>, align 8
@alloc_53973d2fe29b4adba8bb7390b5678745 = private unnamed_addr constant <{ [8 x i8] }> zeroinitializer, align 8

; core::fmt::ArgumentV1::new_lower_exp
; Function Attrs: inlinehint uwtable
define { ptr, ptr } @_ZN4core3fmt10ArgumentV113new_lower_exp17h5a10113179b79380E(ptr align 8 %x) unnamed_addr #0 {
start:
  %0 = alloca { ptr, ptr }, align 8
  store ptr %x, ptr %0, align 8
  %1 = getelementptr inbounds { ptr, ptr }, ptr %0, i32 0, i32 1
  store ptr @"_ZN4core3fmt3num3imp55_$LT$impl$u20$core..fmt..LowerExp$u20$for$u20$isize$GT$3fmt17h8935610bb16b6895E", ptr %1, align 8
  %2 = getelementptr inbounds { ptr, ptr }, ptr %0, i32 0, i32 0
  %3 = load ptr, ptr %2, align 8, !nonnull !1, !align !2, !noundef !1
  %4 = getelementptr inbounds { ptr, ptr }, ptr %0, i32 0, i32 1
  %5 = load ptr, ptr %4, align 8, !nonnull !1, !noundef !1
  %6 = insertvalue { ptr, ptr } poison, ptr %3, 0
  %7 = insertvalue { ptr, ptr } %6, ptr %5, 1
  ret { ptr, ptr } %7
}

; core::fmt::Arguments::as_str
; Function Attrs: inlinehint uwtable
define internal { ptr, i64 } @_ZN4core3fmt9Arguments6as_str17h518e54622c58753aE(ptr align 8 %self) unnamed_addr #0 {
start:
  %_2 = alloca { { ptr, i64 }, { ptr, i64 } }, align 8
  %0 = alloca { ptr, i64 }, align 8
  %1 = getelementptr inbounds %"core::fmt::Arguments<'_>", ptr %self, i32 0, i32 1
  %2 = getelementptr inbounds { ptr, i64 }, ptr %1, i32 0, i32 0
  %_3.0 = load ptr, ptr %2, align 8, !nonnull !1, !align !3, !noundef !1
  %3 = getelementptr inbounds { ptr, i64 }, ptr %1, i32 0, i32 1
  %_3.1 = load i64, ptr %3, align 8, !noundef !1
  %4 = getelementptr inbounds %"core::fmt::Arguments<'_>", ptr %self, i32 0, i32 2
  %5 = getelementptr inbounds { ptr, i64 }, ptr %4, i32 0, i32 0
  %_4.0 = load ptr, ptr %5, align 8, !nonnull !1, !align !3, !noundef !1
  %6 = getelementptr inbounds { ptr, i64 }, ptr %4, i32 0, i32 1
  %_4.1 = load i64, ptr %6, align 8, !noundef !1
  %7 = getelementptr inbounds { ptr, i64 }, ptr %_2, i32 0, i32 0
  store ptr %_3.0, ptr %7, align 8
  %8 = getelementptr inbounds { ptr, i64 }, ptr %_2, i32 0, i32 1
  store i64 %_3.1, ptr %8, align 8
  %9 = getelementptr inbounds { { ptr, i64 }, { ptr, i64 } }, ptr %_2, i32 0, i32 1
  %10 = getelementptr inbounds { ptr, i64 }, ptr %9, i32 0, i32 0
  store ptr %_4.0, ptr %10, align 8
  %11 = getelementptr inbounds { ptr, i64 }, ptr %9, i32 0, i32 1
  store i64 %_4.1, ptr %11, align 8
  %12 = getelementptr inbounds { ptr, i64 }, ptr %_2, i32 0, i32 0
  %_19.0 = load ptr, ptr %12, align 8, !nonnull !1, !align !3, !noundef !1
  %13 = getelementptr inbounds { ptr, i64 }, ptr %_2, i32 0, i32 1
  %_19.1 = load i64, ptr %13, align 8, !noundef !1
  %_16 = icmp eq i64 %_19.1, 0
  br i1 %_16, label %bb1, label %bb3

bb3:                                              ; preds = %start
  %14 = getelementptr inbounds { ptr, i64 }, ptr %_2, i32 0, i32 0
  %_21.0 = load ptr, ptr %14, align 8, !nonnull !1, !align !3, !noundef !1
  %15 = getelementptr inbounds { ptr, i64 }, ptr %_2, i32 0, i32 1
  %_21.1 = load i64, ptr %15, align 8, !noundef !1
  %_13 = icmp eq i64 %_21.1, 1
  br i1 %_13, label %bb4, label %bb2

bb1:                                              ; preds = %start
  %16 = getelementptr inbounds { { ptr, i64 }, { ptr, i64 } }, ptr %_2, i32 0, i32 1
  %17 = getelementptr inbounds { ptr, i64 }, ptr %16, i32 0, i32 0
  %_20.0 = load ptr, ptr %17, align 8, !nonnull !1, !align !3, !noundef !1
  %18 = getelementptr inbounds { ptr, i64 }, ptr %16, i32 0, i32 1
  %_20.1 = load i64, ptr %18, align 8, !noundef !1
  %_7 = icmp eq i64 %_20.1, 0
  br i1 %_7, label %bb5, label %bb2

bb2:                                              ; preds = %bb4, %bb3, %bb1
  store ptr null, ptr %0, align 8
  br label %bb7

bb5:                                              ; preds = %bb1
  %19 = getelementptr inbounds { ptr, i64 }, ptr %0, i32 0, i32 0
  store ptr @alloc_2a62ba4d4fa46537b277796d74f8c568, ptr %19, align 8
  %20 = getelementptr inbounds { ptr, i64 }, ptr %0, i32 0, i32 1
  store i64 0, ptr %20, align 8
  br label %bb7

bb7:                                              ; preds = %bb2, %bb6, %bb5
  %21 = getelementptr inbounds { ptr, i64 }, ptr %0, i32 0, i32 0
  %22 = load ptr, ptr %21, align 8, !align !2, !noundef !1
  %23 = getelementptr inbounds { ptr, i64 }, ptr %0, i32 0, i32 1
  %24 = load i64, ptr %23, align 8
  %25 = insertvalue { ptr, i64 } poison, ptr %22, 0
  %26 = insertvalue { ptr, i64 } %25, i64 %24, 1
  ret { ptr, i64 } %26

bb4:                                              ; preds = %bb3
  %27 = getelementptr inbounds { { ptr, i64 }, { ptr, i64 } }, ptr %_2, i32 0, i32 1
  %28 = getelementptr inbounds { ptr, i64 }, ptr %27, i32 0, i32 0
  %_22.0 = load ptr, ptr %28, align 8, !nonnull !1, !align !3, !noundef !1
  %29 = getelementptr inbounds { ptr, i64 }, ptr %27, i32 0, i32 1
  %_22.1 = load i64, ptr %29, align 8, !noundef !1
  %_10 = icmp eq i64 %_22.1, 0
  br i1 %_10, label %bb6, label %bb2

bb6:                                              ; preds = %bb4
  %30 = getelementptr inbounds { ptr, i64 }, ptr %_2, i32 0, i32 0
  %_23.0 = load ptr, ptr %30, align 8, !nonnull !1, !align !3, !noundef !1
  %31 = getelementptr inbounds { ptr, i64 }, ptr %_2, i32 0, i32 1
  %_23.1 = load i64, ptr %31, align 8, !noundef !1
  %s = getelementptr inbounds [0 x { ptr, i64 }], ptr %_23.0, i64 0, i64 0
  %32 = getelementptr inbounds { ptr, i64 }, ptr %s, i32 0, i32 0
  %_24.0 = load ptr, ptr %32, align 8, !nonnull !1, !align !2, !noundef !1
  %33 = getelementptr inbounds { ptr, i64 }, ptr %s, i32 0, i32 1
  %_24.1 = load i64, ptr %33, align 8, !noundef !1
  %34 = getelementptr inbounds { ptr, i64 }, ptr %0, i32 0, i32 0
  store ptr %_24.0, ptr %34, align 8
  %35 = getelementptr inbounds { ptr, i64 }, ptr %0, i32 0, i32 1
  store i64 %_24.1, ptr %35, align 8
  br label %bb7
}

; core::fmt::Arguments::new_v1
; Function Attrs: inlinehint uwtable
define internal void @_ZN4core3fmt9Arguments6new_v117h9f0f9e696a5d9db6E(ptr sret(%"core::fmt::Arguments<'_>") %0, ptr align 8 %pieces.0, i64 %pieces.1, ptr align 8 %args.0, i64 %args.1) unnamed_addr #0 {
start:
  %_16 = alloca { ptr, i64 }, align 8
  %_14 = alloca { ptr, i64 }, align 8
  %_12 = alloca %"core::fmt::Arguments<'_>", align 8
  %_3 = alloca i8, align 1
  %_4 = icmp ult i64 %pieces.1, %args.1
  br i1 %_4, label %bb1, label %bb2

bb2:                                              ; preds = %start
  %_9 = add i64 %args.1, 1
  %_7 = icmp ugt i64 %pieces.1, %_9
  %1 = zext i1 %_7 to i8
  store i8 %1, ptr %_3, align 1
  br label %bb3

bb1:                                              ; preds = %start
  store i8 1, ptr %_3, align 1
  br label %bb3

bb3:                                              ; preds = %bb2, %bb1
  %2 = load i8, ptr %_3, align 1, !range !4, !noundef !1
  %3 = trunc i8 %2 to i1
  br i1 %3, label %bb4, label %bb5

bb5:                                              ; preds = %bb3
  store ptr null, ptr %_14, align 8
  %4 = getelementptr inbounds %"core::fmt::Arguments<'_>", ptr %0, i32 0, i32 1
  %5 = getelementptr inbounds { ptr, i64 }, ptr %4, i32 0, i32 0
  store ptr %pieces.0, ptr %5, align 8
  %6 = getelementptr inbounds { ptr, i64 }, ptr %4, i32 0, i32 1
  store i64 %pieces.1, ptr %6, align 8
  %7 = getelementptr inbounds { ptr, i64 }, ptr %_14, i32 0, i32 0
  %8 = load ptr, ptr %7, align 8, !align !3, !noundef !1
  %9 = getelementptr inbounds { ptr, i64 }, ptr %_14, i32 0, i32 1
  %10 = load i64, ptr %9, align 8
  %11 = getelementptr inbounds { ptr, i64 }, ptr %0, i32 0, i32 0
  store ptr %8, ptr %11, align 8
  %12 = getelementptr inbounds { ptr, i64 }, ptr %0, i32 0, i32 1
  store i64 %10, ptr %12, align 8
  %13 = getelementptr inbounds %"core::fmt::Arguments<'_>", ptr %0, i32 0, i32 2
  %14 = getelementptr inbounds { ptr, i64 }, ptr %13, i32 0, i32 0
  store ptr %args.0, ptr %14, align 8
  %15 = getelementptr inbounds { ptr, i64 }, ptr %13, i32 0, i32 1
  store i64 %args.1, ptr %15, align 8
  ret void

bb4:                                              ; preds = %bb3
  store ptr null, ptr %_16, align 8
  %16 = getelementptr inbounds %"core::fmt::Arguments<'_>", ptr %_12, i32 0, i32 1
  %17 = getelementptr inbounds { ptr, i64 }, ptr %16, i32 0, i32 0
  store ptr @alloc_560206a49c61adca6f3f0639a12632eb, ptr %17, align 8
  %18 = getelementptr inbounds { ptr, i64 }, ptr %16, i32 0, i32 1
  store i64 1, ptr %18, align 8
  %19 = getelementptr inbounds { ptr, i64 }, ptr %_16, i32 0, i32 0
  %20 = load ptr, ptr %19, align 8, !align !3, !noundef !1
  %21 = getelementptr inbounds { ptr, i64 }, ptr %_16, i32 0, i32 1
  %22 = load i64, ptr %21, align 8
  %23 = getelementptr inbounds { ptr, i64 }, ptr %_12, i32 0, i32 0
  store ptr %20, ptr %23, align 8
  %24 = getelementptr inbounds { ptr, i64 }, ptr %_12, i32 0, i32 1
  store i64 %22, ptr %24, align 8
  %25 = getelementptr inbounds %"core::fmt::Arguments<'_>", ptr %_12, i32 0, i32 2
  %26 = getelementptr inbounds { ptr, i64 }, ptr %25, i32 0, i32 0
  store ptr @alloc_2a62ba4d4fa46537b277796d74f8c568, ptr %26, align 8
  %27 = getelementptr inbounds { ptr, i64 }, ptr %25, i32 0, i32 1
  store i64 0, ptr %27, align 8
; call core::panicking::panic_fmt
  call void @_ZN4core9panicking9panic_fmt17he268a5f53ffa4422E(ptr %_12, ptr align 8 @alloc_3ba4cd508f286e2d4eec7a245f0dfbda) #12
  unreachable
}

; core::ops::function::FnOnce::call_once
; Function Attrs: inlinehint uwtable
define internal void @_ZN4core3ops8function6FnOnce9call_once17haf3bc4a1aa70526fE(ptr sret(%"alloc::string::String") %0, ptr align 1 %1, i64 %2) unnamed_addr #0 {
start:
  %_2 = alloca { ptr, i64 }, align 8
  %3 = getelementptr inbounds { ptr, i64 }, ptr %_2, i32 0, i32 0
  store ptr %1, ptr %3, align 8
  %4 = getelementptr inbounds { ptr, i64 }, ptr %_2, i32 0, i32 1
  store i64 %2, ptr %4, align 8
  %5 = getelementptr inbounds { ptr, i64 }, ptr %_2, i32 0, i32 0
  %6 = load ptr, ptr %5, align 8, !nonnull !1, !align !2, !noundef !1
  %7 = getelementptr inbounds { ptr, i64 }, ptr %_2, i32 0, i32 1
  %8 = load i64, ptr %7, align 8, !noundef !1
; call alloc::str::<impl alloc::borrow::ToOwned for str>::to_owned
  call void @"_ZN5alloc3str56_$LT$impl$u20$alloc..borrow..ToOwned$u20$for$u20$str$GT$8to_owned17hcb1aff3315cb0d70E"(ptr sret(%"alloc::string::String") %0, ptr align 1 %6, i64 %8)
  ret void
}

; core::ptr::drop_in_place<alloc::string::String>
; Function Attrs: uwtable
define void @"_ZN4core3ptr42drop_in_place$LT$alloc..string..String$GT$17ha6acf269f4e1ddd7E"(ptr %_1) unnamed_addr #1 {
start:
; call core::ptr::drop_in_place<alloc::vec::Vec<u8>>
  call void @"_ZN4core3ptr46drop_in_place$LT$alloc..vec..Vec$LT$u8$GT$$GT$17ha62c2ccd196e373dE"(ptr %_1)
  ret void
}

; core::ptr::drop_in_place<alloc::vec::Vec<u8>>
; Function Attrs: uwtable
define void @"_ZN4core3ptr46drop_in_place$LT$alloc..vec..Vec$LT$u8$GT$$GT$17ha62c2ccd196e373dE"(ptr %_1) unnamed_addr #1 personality ptr @rust_eh_personality {
start:
  %0 = alloca { ptr, i32 }, align 8
; invoke <alloc::vec::Vec<T,A> as core::ops::drop::Drop>::drop
  invoke void @"_ZN70_$LT$alloc..vec..Vec$LT$T$C$A$GT$$u20$as$u20$core..ops..drop..Drop$GT$4drop17h782ecd404021298dE"(ptr align 8 %_1)
          to label %bb4 unwind label %cleanup

bb3:                                              ; preds = %cleanup
; invoke core::ptr::drop_in_place<alloc::raw_vec::RawVec<u8>>
  invoke void @"_ZN4core3ptr53drop_in_place$LT$alloc..raw_vec..RawVec$LT$u8$GT$$GT$17h5e23af6a03cb6b0aE"(ptr %_1) #13
          to label %bb1 unwind label %terminate

cleanup:                                          ; preds = %start
  %1 = landingpad { ptr, i32 }
          cleanup
  %2 = extractvalue { ptr, i32 } %1, 0
  %3 = extractvalue { ptr, i32 } %1, 1
  %4 = getelementptr inbounds { ptr, i32 }, ptr %0, i32 0, i32 0
  store ptr %2, ptr %4, align 8
  %5 = getelementptr inbounds { ptr, i32 }, ptr %0, i32 0, i32 1
  store i32 %3, ptr %5, align 8
  br label %bb3

bb4:                                              ; preds = %start
; call core::ptr::drop_in_place<alloc::raw_vec::RawVec<u8>>
  call void @"_ZN4core3ptr53drop_in_place$LT$alloc..raw_vec..RawVec$LT$u8$GT$$GT$17h5e23af6a03cb6b0aE"(ptr %_1)
  ret void

terminate:                                        ; preds = %bb3
  %6 = landingpad { ptr, i32 }
          cleanup
  %7 = extractvalue { ptr, i32 } %6, 0
  %8 = extractvalue { ptr, i32 } %6, 1
; call core::panicking::panic_cannot_unwind
  call void @_ZN4core9panicking19panic_cannot_unwind17h7d645fce4145e0f8E() #14
  unreachable

bb1:                                              ; preds = %bb3
  %9 = load ptr, ptr %0, align 8, !noundef !1
  %10 = getelementptr inbounds { ptr, i32 }, ptr %0, i32 0, i32 1
  %11 = load i32, ptr %10, align 8, !noundef !1
  %12 = insertvalue { ptr, i32 } poison, ptr %9, 0
  %13 = insertvalue { ptr, i32 } %12, i32 %11, 1
  resume { ptr, i32 } %13
}

; core::ptr::drop_in_place<alloc::raw_vec::RawVec<u8>>
; Function Attrs: uwtable
define void @"_ZN4core3ptr53drop_in_place$LT$alloc..raw_vec..RawVec$LT$u8$GT$$GT$17h5e23af6a03cb6b0aE"(ptr %_1) unnamed_addr #1 {
start:
; call <alloc::raw_vec::RawVec<T,A> as core::ops::drop::Drop>::drop
  call void @"_ZN77_$LT$alloc..raw_vec..RawVec$LT$T$C$A$GT$$u20$as$u20$core..ops..drop..Drop$GT$4drop17h5d541717a3b68fd0E"(ptr align 8 %_1)
  ret void
}

; core::alloc::layout::Layout::array::inner
; Function Attrs: inlinehint uwtable
define internal { i64, i64 } @_ZN4core5alloc6layout6Layout5array5inner17h28025f9c9078e573E(i64 %element_size, i64 %align, i64 %n) unnamed_addr #0 {
start:
  %_19 = alloca i64, align 8
  %_15 = alloca i64, align 8
  %_10 = alloca { i64, i64 }, align 8
  %_4 = alloca i8, align 1
  %0 = alloca { i64, i64 }, align 8
  %1 = icmp eq i64 %element_size, 0
  br i1 %1, label %bb1, label %bb2

bb1:                                              ; preds = %start
  store i8 0, ptr %_4, align 1
  br label %bb3

bb2:                                              ; preds = %start
  store i64 %align, ptr %_15, align 8
  %_16 = load i64, ptr %_15, align 8, !range !5, !noundef !1
  %_17 = icmp uge i64 -9223372036854775808, %_16
  call void @llvm.assume(i1 %_17)
  %_18 = icmp ule i64 1, %_16
  call void @llvm.assume(i1 %_18)
  %_13 = sub i64 %_16, 1
  %_7 = sub i64 9223372036854775807, %_13
  %_8 = icmp eq i64 %element_size, 0
  %2 = call i1 @llvm.expect.i1(i1 %_8, i1 false)
  br i1 %2, label %panic, label %bb4

bb4:                                              ; preds = %bb2
  %_6 = udiv i64 %_7, %element_size
  %_5 = icmp ugt i64 %n, %_6
  %3 = zext i1 %_5 to i8
  store i8 %3, ptr %_4, align 1
  br label %bb3

panic:                                            ; preds = %bb2
; call core::panicking::panic
  call void @_ZN4core9panicking5panic17h1042ba0fc6819e49E(ptr align 1 @str.0, i64 25, ptr align 8 @alloc_47e59e7b74d19d7797d2c7148153ea1a) #12
  unreachable

bb3:                                              ; preds = %bb1, %bb4
  %4 = load i8, ptr %_4, align 1, !range !4, !noundef !1
  %5 = trunc i8 %4 to i1
  br i1 %5, label %bb5, label %bb6

bb6:                                              ; preds = %bb3
  %array_size = mul i64 %element_size, %n
  store i64 %align, ptr %_19, align 8
  %_20 = load i64, ptr %_19, align 8, !range !5, !noundef !1
  %_21 = icmp uge i64 -9223372036854775808, %_20
  call void @llvm.assume(i1 %_21)
  %_22 = icmp ule i64 1, %_20
  call void @llvm.assume(i1 %_22)
  store i64 %array_size, ptr %_10, align 8
  %6 = getelementptr inbounds { i64, i64 }, ptr %_10, i32 0, i32 1
  store i64 %_20, ptr %6, align 8
  %7 = getelementptr inbounds { i64, i64 }, ptr %_10, i32 0, i32 0
  %8 = load i64, ptr %7, align 8, !noundef !1
  %9 = getelementptr inbounds { i64, i64 }, ptr %_10, i32 0, i32 1
  %10 = load i64, ptr %9, align 8, !range !5, !noundef !1
  %11 = getelementptr inbounds { i64, i64 }, ptr %0, i32 0, i32 0
  store i64 %8, ptr %11, align 8
  %12 = getelementptr inbounds { i64, i64 }, ptr %0, i32 0, i32 1
  store i64 %10, ptr %12, align 8
  br label %bb7

bb5:                                              ; preds = %bb3
  %13 = getelementptr inbounds { i64, i64 }, ptr %0, i32 0, i32 1
  store i64 0, ptr %13, align 8
  br label %bb7

bb7:                                              ; preds = %bb6, %bb5
  %14 = getelementptr inbounds { i64, i64 }, ptr %0, i32 0, i32 0
  %15 = load i64, ptr %14, align 8
  %16 = getelementptr inbounds { i64, i64 }, ptr %0, i32 0, i32 1
  %17 = load i64, ptr %16, align 8, !range !6, !noundef !1
  %18 = insertvalue { i64, i64 } poison, i64 %15, 0
  %19 = insertvalue { i64, i64 } %18, i64 %17, 1
  ret { i64, i64 } %19
}

; core::option::Option<T>::map_or_else
; Function Attrs: inlinehint uwtable
define void @"_ZN4core6option15Option$LT$T$GT$11map_or_else17h5c4ab70645fc5489E"(ptr sret(%"alloc::string::String") %0, ptr align 1 %1, i64 %2, ptr align 8 %default) unnamed_addr #0 personality ptr @rust_eh_personality {
start:
  %3 = alloca { ptr, i32 }, align 8
  %_10 = alloca i8, align 1
  %_9 = alloca i8, align 1
  %_7 = alloca { ptr, i64 }, align 8
  %self = alloca { ptr, i64 }, align 8
  %4 = getelementptr inbounds { ptr, i64 }, ptr %self, i32 0, i32 0
  store ptr %1, ptr %4, align 8
  %5 = getelementptr inbounds { ptr, i64 }, ptr %self, i32 0, i32 1
  store i64 %2, ptr %5, align 8
  store i8 1, ptr %_10, align 1
  store i8 1, ptr %_9, align 1
  %6 = load ptr, ptr %self, align 8, !noundef !1
  %7 = ptrtoint ptr %6 to i64
  %8 = icmp eq i64 %7, 0
  %_4 = select i1 %8, i64 0, i64 1
  %9 = icmp eq i64 %_4, 0
  br i1 %9, label %bb1, label %bb3

bb1:                                              ; preds = %start
  store i8 0, ptr %_10, align 1
; invoke alloc::fmt::format::{{closure}}
  invoke void @"_ZN5alloc3fmt6format28_$u7b$$u7b$closure$u7d$$u7d$17h48c44db25a097920E"(ptr sret(%"alloc::string::String") %0, ptr align 8 %default)
          to label %bb5 unwind label %cleanup

bb3:                                              ; preds = %start
  %10 = getelementptr inbounds { ptr, i64 }, ptr %self, i32 0, i32 0
  %t.0 = load ptr, ptr %10, align 8, !nonnull !1, !align !2, !noundef !1
  %11 = getelementptr inbounds { ptr, i64 }, ptr %self, i32 0, i32 1
  %t.1 = load i64, ptr %11, align 8, !noundef !1
  store i8 0, ptr %_9, align 1
  %12 = getelementptr inbounds { ptr, i64 }, ptr %_7, i32 0, i32 0
  store ptr %t.0, ptr %12, align 8
  %13 = getelementptr inbounds { ptr, i64 }, ptr %_7, i32 0, i32 1
  store i64 %t.1, ptr %13, align 8
  %14 = getelementptr inbounds { ptr, i64 }, ptr %_7, i32 0, i32 0
  %15 = load ptr, ptr %14, align 8, !nonnull !1, !align !2, !noundef !1
  %16 = getelementptr inbounds { ptr, i64 }, ptr %_7, i32 0, i32 1
  %17 = load i64, ptr %16, align 8, !noundef !1
; invoke core::ops::function::FnOnce::call_once
  invoke void @_ZN4core3ops8function6FnOnce9call_once17haf3bc4a1aa70526fE(ptr sret(%"alloc::string::String") %0, ptr align 1 %15, i64 %17)
          to label %bb4 unwind label %cleanup

bb2:                                              ; No predecessors!
  unreachable

bb14:                                             ; preds = %cleanup
  %18 = load i8, ptr %_9, align 1, !range !4, !noundef !1
  %19 = trunc i8 %18 to i1
  br i1 %19, label %bb13, label %bb8

cleanup:                                          ; preds = %bb1, %bb3
  %20 = landingpad { ptr, i32 }
          cleanup
  %21 = extractvalue { ptr, i32 } %20, 0
  %22 = extractvalue { ptr, i32 } %20, 1
  %23 = getelementptr inbounds { ptr, i32 }, ptr %3, i32 0, i32 0
  store ptr %21, ptr %23, align 8
  %24 = getelementptr inbounds { ptr, i32 }, ptr %3, i32 0, i32 1
  store i32 %22, ptr %24, align 8
  br label %bb14

bb4:                                              ; preds = %bb3
  br label %bb11

bb11:                                             ; preds = %bb5, %bb4
  %25 = load i8, ptr %_9, align 1, !range !4, !noundef !1
  %26 = trunc i8 %25 to i1
  br i1 %26, label %bb10, label %bb6

bb5:                                              ; preds = %bb1
  br label %bb11

bb8:                                              ; preds = %bb13, %bb14
  %27 = load i8, ptr %_10, align 1, !range !4, !noundef !1
  %28 = trunc i8 %27 to i1
  br i1 %28, label %bb15, label %bb9

bb13:                                             ; preds = %bb14
  br label %bb8

bb6:                                              ; preds = %bb10, %bb11
  %29 = load i8, ptr %_10, align 1, !range !4, !noundef !1
  %30 = trunc i8 %29 to i1
  br i1 %30, label %bb12, label %bb7

bb10:                                             ; preds = %bb11
  br label %bb6

bb9:                                              ; preds = %bb15, %bb8
  %31 = load ptr, ptr %3, align 8, !noundef !1
  %32 = getelementptr inbounds { ptr, i32 }, ptr %3, i32 0, i32 1
  %33 = load i32, ptr %32, align 8, !noundef !1
  %34 = insertvalue { ptr, i32 } poison, ptr %31, 0
  %35 = insertvalue { ptr, i32 } %34, i32 %33, 1
  resume { ptr, i32 } %35

bb15:                                             ; preds = %bb8
  br label %bb9

bb7:                                              ; preds = %bb12, %bb6
  ret void

bb12:                                             ; preds = %bb6
  br label %bb7
}

; <T as alloc::slice::hack::ConvertVec>::to_vec
; Function Attrs: inlinehint uwtable
define void @"_ZN52_$LT$T$u20$as$u20$alloc..slice..hack..ConvertVec$GT$6to_vec17hf1cc9188d2e9e1e8E"(ptr sret(%"alloc::vec::Vec<u8>") %self, ptr align 1 %s.0, i64 %s.1) unnamed_addr #0 personality ptr @rust_eh_personality {
start:
  %0 = alloca { ptr, i32 }, align 8
; invoke alloc::raw_vec::RawVec<T,A>::allocate_in
  %1 = invoke { i64, ptr } @"_ZN5alloc7raw_vec19RawVec$LT$T$C$A$GT$11allocate_in17hf199c76effe553b9E"(i64 %s.1, i1 zeroext false)
          to label %bb4 unwind label %cleanup

bb3:                                              ; preds = %cleanup
  br i1 false, label %bb2, label %bb1

cleanup:                                          ; preds = %start
  %2 = landingpad { ptr, i32 }
          cleanup
  %3 = extractvalue { ptr, i32 } %2, 0
  %4 = extractvalue { ptr, i32 } %2, 1
  %5 = getelementptr inbounds { ptr, i32 }, ptr %0, i32 0, i32 0
  store ptr %3, ptr %5, align 8
  %6 = getelementptr inbounds { ptr, i32 }, ptr %0, i32 0, i32 1
  store i32 %4, ptr %6, align 8
  br label %bb3

bb4:                                              ; preds = %start
  %_12.0 = extractvalue { i64, ptr } %1, 0
  %_12.1 = extractvalue { i64, ptr } %1, 1
  %7 = getelementptr inbounds { i64, ptr }, ptr %self, i32 0, i32 0
  store i64 %_12.0, ptr %7, align 8
  %8 = getelementptr inbounds { i64, ptr }, ptr %self, i32 0, i32 1
  store ptr %_12.1, ptr %8, align 8
  %9 = getelementptr inbounds %"alloc::vec::Vec<u8>", ptr %self, i32 0, i32 1
  store i64 0, ptr %9, align 8
  %10 = getelementptr inbounds { i64, ptr }, ptr %self, i32 0, i32 1
  %self1 = load ptr, ptr %10, align 8, !nonnull !1, !noundef !1
  %11 = mul i64 %s.1, 1
  call void @llvm.memcpy.p0.p0.i64(ptr align 1 %self1, ptr align 1 %s.0, i64 %11, i1 false)
  %12 = getelementptr inbounds %"alloc::vec::Vec<u8>", ptr %self, i32 0, i32 1
  store i64 %s.1, ptr %12, align 8
  ret void

bb1:                                              ; preds = %bb2, %bb3
  %13 = load ptr, ptr %0, align 8, !noundef !1
  %14 = getelementptr inbounds { ptr, i32 }, ptr %0, i32 0, i32 1
  %15 = load i32, ptr %14, align 8, !noundef !1
  %16 = insertvalue { ptr, i32 } poison, ptr %13, 0
  %17 = insertvalue { ptr, i32 } %16, i32 %15, 1
  resume { ptr, i32 } %17

bb2:                                              ; preds = %bb3
  br label %bb1
}

; alloc::fmt::format
; Function Attrs: inlinehint uwtable
define internal void @_ZN5alloc3fmt6format17h722d38405f32a212E(ptr sret(%"alloc::string::String") %0, ptr %args) unnamed_addr #0 {
start:
  %_4 = alloca ptr, align 8
; call core::fmt::Arguments::as_str
  %1 = call { ptr, i64 } @_ZN4core3fmt9Arguments6as_str17h518e54622c58753aE(ptr align 8 %args)
  %_2.0 = extractvalue { ptr, i64 } %1, 0
  %_2.1 = extractvalue { ptr, i64 } %1, 1
  store ptr %args, ptr %_4, align 8
  %2 = load ptr, ptr %_4, align 8, !nonnull !1, !align !3, !noundef !1
; call core::option::Option<T>::map_or_else
  call void @"_ZN4core6option15Option$LT$T$GT$11map_or_else17h5c4ab70645fc5489E"(ptr sret(%"alloc::string::String") %0, ptr align 1 %_2.0, i64 %_2.1, ptr align 8 %2)
  ret void
}

; alloc::fmt::format::{{closure}}
; Function Attrs: inlinehint uwtable
define void @"_ZN5alloc3fmt6format28_$u7b$$u7b$closure$u7d$$u7d$17h48c44db25a097920E"(ptr sret(%"alloc::string::String") %0, ptr align 8 %1) unnamed_addr #0 {
start:
  %_2 = alloca %"core::fmt::Arguments<'_>", align 8
  %_1 = alloca ptr, align 8
  store ptr %1, ptr %_1, align 8
  %_3 = load ptr, ptr %_1, align 8, !nonnull !1, !align !3, !noundef !1
  call void @llvm.memcpy.p0.p0.i64(ptr align 8 %_2, ptr align 8 %_3, i64 48, i1 false)
; call alloc::fmt::format::format_inner
  call void @_ZN5alloc3fmt6format12format_inner17h2233617862468319E(ptr sret(%"alloc::string::String") %0, ptr %_2)
  ret void
}

; alloc::str::<impl alloc::borrow::ToOwned for str>::to_owned
; Function Attrs: inlinehint uwtable
define internal void @"_ZN5alloc3str56_$LT$impl$u20$alloc..borrow..ToOwned$u20$for$u20$str$GT$8to_owned17hcb1aff3315cb0d70E"(ptr sret(%"alloc::string::String") %0, ptr align 1 %self.0, i64 %self.1) unnamed_addr #0 {
start:
  %bytes = alloca %"alloc::vec::Vec<u8>", align 8
; call <T as alloc::slice::hack::ConvertVec>::to_vec
  call void @"_ZN52_$LT$T$u20$as$u20$alloc..slice..hack..ConvertVec$GT$6to_vec17hf1cc9188d2e9e1e8E"(ptr sret(%"alloc::vec::Vec<u8>") %bytes, ptr align 1 %self.0, i64 %self.1)
  call void @llvm.memcpy.p0.p0.i64(ptr align 8 %0, ptr align 8 %bytes, i64 24, i1 false)
  ret void
}

; alloc::alloc::Global::alloc_impl
; Function Attrs: inlinehint uwtable
define internal { ptr, i64 } @_ZN5alloc5alloc6Global10alloc_impl17h0f7ab19ee7e748c5E(ptr align 1 %self, i64 %0, i64 %1, i1 zeroext %zeroed) unnamed_addr #0 {
start:
  %_77 = alloca { ptr, i64 }, align 8
  %_76 = alloca %"core::ptr::metadata::PtrRepr<[u8]>", align 8
  %_61 = alloca ptr, align 8
  %_60 = alloca ptr, align 8
  %_54 = alloca i64, align 8
  %_45 = alloca i64, align 8
  %_35 = alloca { ptr, i64 }, align 8
  %_34 = alloca %"core::ptr::metadata::PtrRepr<[u8]>", align 8
  %_22 = alloca i64, align 8
  %_18 = alloca { ptr, i64 }, align 8
  %self4 = alloca ptr, align 8
  %self3 = alloca ptr, align 8
  %_12 = alloca ptr, align 8
  %layout2 = alloca { i64, i64 }, align 8
  %layout1 = alloca { i64, i64 }, align 8
  %raw_ptr = alloca ptr, align 8
  %data = alloca ptr, align 8
  %_6 = alloca { ptr, i64 }, align 8
  %2 = alloca { ptr, i64 }, align 8
  %layout = alloca { i64, i64 }, align 8
  %3 = getelementptr inbounds { i64, i64 }, ptr %layout, i32 0, i32 0
  store i64 %0, ptr %3, align 8
  %4 = getelementptr inbounds { i64, i64 }, ptr %layout, i32 0, i32 1
  store i64 %1, ptr %4, align 8
  %size = load i64, ptr %layout, align 8, !noundef !1
  %5 = icmp eq i64 %size, 0
  br i1 %5, label %bb2, label %bb1

bb2:                                              ; preds = %start
  %6 = getelementptr inbounds { i64, i64 }, ptr %layout, i32 0, i32 1
  %self10 = load i64, ptr %6, align 8, !range !5, !noundef !1
  store i64 %self10, ptr %_22, align 8
  %_23 = load i64, ptr %_22, align 8, !range !5, !noundef !1
  %_24 = icmp uge i64 -9223372036854775808, %_23
  call void @llvm.assume(i1 %_24)
  %_25 = icmp ule i64 1, %_23
  call void @llvm.assume(i1 %_25)
  %ptr11 = inttoptr i64 %_23 to ptr
  store ptr %ptr11, ptr %data, align 8
  %_32 = load ptr, ptr %data, align 8, !noundef !1
  store ptr %_32, ptr %_35, align 8
  %7 = getelementptr inbounds { ptr, i64 }, ptr %_35, i32 0, i32 1
  store i64 0, ptr %7, align 8
  %8 = getelementptr inbounds { ptr, i64 }, ptr %_35, i32 0, i32 0
  %9 = load ptr, ptr %8, align 8, !noundef !1
  %10 = getelementptr inbounds { ptr, i64 }, ptr %_35, i32 0, i32 1
  %11 = load i64, ptr %10, align 8, !noundef !1
  %12 = getelementptr inbounds { ptr, i64 }, ptr %_34, i32 0, i32 0
  store ptr %9, ptr %12, align 8
  %13 = getelementptr inbounds { ptr, i64 }, ptr %_34, i32 0, i32 1
  store i64 %11, ptr %13, align 8
  %14 = getelementptr inbounds { ptr, i64 }, ptr %_34, i32 0, i32 0
  %ptr.012 = load ptr, ptr %14, align 8, !noundef !1
  %15 = getelementptr inbounds { ptr, i64 }, ptr %_34, i32 0, i32 1
  %ptr.113 = load i64, ptr %15, align 8, !noundef !1
  %16 = getelementptr inbounds { ptr, i64 }, ptr %_6, i32 0, i32 0
  store ptr %ptr.012, ptr %16, align 8
  %17 = getelementptr inbounds { ptr, i64 }, ptr %_6, i32 0, i32 1
  store i64 %ptr.113, ptr %17, align 8
  %18 = getelementptr inbounds { ptr, i64 }, ptr %_6, i32 0, i32 0
  %19 = load ptr, ptr %18, align 8, !nonnull !1, !noundef !1
  %20 = getelementptr inbounds { ptr, i64 }, ptr %_6, i32 0, i32 1
  %21 = load i64, ptr %20, align 8, !noundef !1
  %22 = getelementptr inbounds { ptr, i64 }, ptr %2, i32 0, i32 0
  store ptr %19, ptr %22, align 8
  %23 = getelementptr inbounds { ptr, i64 }, ptr %2, i32 0, i32 1
  store i64 %21, ptr %23, align 8
  br label %bb10

bb1:                                              ; preds = %start
  br i1 %zeroed, label %bb3, label %bb4

bb4:                                              ; preds = %bb1
  %24 = getelementptr inbounds { i64, i64 }, ptr %layout, i32 0, i32 0
  %25 = load i64, ptr %24, align 8, !noundef !1
  %26 = getelementptr inbounds { i64, i64 }, ptr %layout, i32 0, i32 1
  %27 = load i64, ptr %26, align 8, !range !5, !noundef !1
  %28 = getelementptr inbounds { i64, i64 }, ptr %layout2, i32 0, i32 0
  store i64 %25, ptr %28, align 8
  %29 = getelementptr inbounds { i64, i64 }, ptr %layout2, i32 0, i32 1
  store i64 %27, ptr %29, align 8
  %_49 = load i64, ptr %layout2, align 8, !noundef !1
  %30 = getelementptr inbounds { i64, i64 }, ptr %layout2, i32 0, i32 1
  %self6 = load i64, ptr %30, align 8, !range !5, !noundef !1
  store i64 %self6, ptr %_54, align 8
  %_55 = load i64, ptr %_54, align 8, !range !5, !noundef !1
  %_56 = icmp uge i64 -9223372036854775808, %_55
  call void @llvm.assume(i1 %_56)
  %_57 = icmp ule i64 1, %_55
  call void @llvm.assume(i1 %_57)
  %31 = call ptr @__rust_alloc(i64 %_49, i64 %_55) #15
  store ptr %31, ptr %raw_ptr, align 8
  br label %bb5

bb3:                                              ; preds = %bb1
  %32 = getelementptr inbounds { i64, i64 }, ptr %layout, i32 0, i32 0
  %33 = load i64, ptr %32, align 8, !noundef !1
  %34 = getelementptr inbounds { i64, i64 }, ptr %layout, i32 0, i32 1
  %35 = load i64, ptr %34, align 8, !range !5, !noundef !1
  %36 = getelementptr inbounds { i64, i64 }, ptr %layout1, i32 0, i32 0
  store i64 %33, ptr %36, align 8
  %37 = getelementptr inbounds { i64, i64 }, ptr %layout1, i32 0, i32 1
  store i64 %35, ptr %37, align 8
  %_40 = load i64, ptr %layout1, align 8, !noundef !1
  %38 = getelementptr inbounds { i64, i64 }, ptr %layout1, i32 0, i32 1
  %self5 = load i64, ptr %38, align 8, !range !5, !noundef !1
  store i64 %self5, ptr %_45, align 8
  %_46 = load i64, ptr %_45, align 8, !range !5, !noundef !1
  %_47 = icmp uge i64 -9223372036854775808, %_46
  call void @llvm.assume(i1 %_47)
  %_48 = icmp ule i64 1, %_46
  call void @llvm.assume(i1 %_48)
  %39 = call ptr @__rust_alloc_zeroed(i64 %_40, i64 %_46) #15
  store ptr %39, ptr %raw_ptr, align 8
  br label %bb5

bb5:                                              ; preds = %bb4, %bb3
  %ptr = load ptr, ptr %raw_ptr, align 8, !noundef !1
  store ptr %ptr, ptr %_61, align 8
  %ptr7 = load ptr, ptr %_61, align 8, !noundef !1
  %_63 = ptrtoint ptr %ptr7 to i64
  %_59 = icmp eq i64 %_63, 0
  %_58 = xor i1 %_59, true
  br i1 %_58, label %bb13, label %bb14

bb14:                                             ; preds = %bb5
  store ptr null, ptr %self4, align 8
  br label %bb15

bb13:                                             ; preds = %bb5
  store ptr %ptr, ptr %_60, align 8
  %40 = load ptr, ptr %_60, align 8, !nonnull !1, !noundef !1
  store ptr %40, ptr %self4, align 8
  br label %bb15

bb15:                                             ; preds = %bb14, %bb13
  %41 = load ptr, ptr %self4, align 8, !noundef !1
  %42 = ptrtoint ptr %41 to i64
  %43 = icmp eq i64 %42, 0
  %_68 = select i1 %43, i64 0, i64 1
  %44 = icmp eq i64 %_68, 0
  br i1 %44, label %bb16, label %bb17

bb16:                                             ; preds = %bb15
  store ptr null, ptr %self3, align 8
  br label %bb18

bb17:                                             ; preds = %bb15
  %v = load ptr, ptr %self4, align 8, !nonnull !1, !noundef !1
  store ptr %v, ptr %self3, align 8
  br label %bb18

bb18:                                             ; preds = %bb16, %bb17
  %45 = load ptr, ptr %self3, align 8, !noundef !1
  %46 = ptrtoint ptr %45 to i64
  %47 = icmp eq i64 %46, 0
  %_70 = select i1 %47, i64 1, i64 0
  %48 = icmp eq i64 %_70, 0
  br i1 %48, label %bb20, label %bb19

bb20:                                             ; preds = %bb18
  %v8 = load ptr, ptr %self3, align 8, !nonnull !1, !noundef !1
  store ptr %v8, ptr %_12, align 8
  br label %bb6

bb19:                                             ; preds = %bb18
  store ptr null, ptr %_12, align 8
  br label %bb6

bb6:                                              ; preds = %bb20, %bb19
  %49 = load ptr, ptr %_12, align 8, !noundef !1
  %50 = ptrtoint ptr %49 to i64
  %51 = icmp eq i64 %50, 0
  %_16 = select i1 %51, i64 1, i64 0
  %52 = icmp eq i64 %_16, 0
  br i1 %52, label %bb7, label %bb9

bb7:                                              ; preds = %bb6
  %ptr9 = load ptr, ptr %_12, align 8, !nonnull !1, !noundef !1
  store ptr %ptr9, ptr %_77, align 8
  %53 = getelementptr inbounds { ptr, i64 }, ptr %_77, i32 0, i32 1
  store i64 %size, ptr %53, align 8
  %54 = getelementptr inbounds { ptr, i64 }, ptr %_77, i32 0, i32 0
  %55 = load ptr, ptr %54, align 8, !noundef !1
  %56 = getelementptr inbounds { ptr, i64 }, ptr %_77, i32 0, i32 1
  %57 = load i64, ptr %56, align 8, !noundef !1
  %58 = getelementptr inbounds { ptr, i64 }, ptr %_76, i32 0, i32 0
  store ptr %55, ptr %58, align 8
  %59 = getelementptr inbounds { ptr, i64 }, ptr %_76, i32 0, i32 1
  store i64 %57, ptr %59, align 8
  %60 = getelementptr inbounds { ptr, i64 }, ptr %_76, i32 0, i32 0
  %ptr.0 = load ptr, ptr %60, align 8, !noundef !1
  %61 = getelementptr inbounds { ptr, i64 }, ptr %_76, i32 0, i32 1
  %ptr.1 = load i64, ptr %61, align 8, !noundef !1
  %62 = getelementptr inbounds { ptr, i64 }, ptr %_18, i32 0, i32 0
  store ptr %ptr.0, ptr %62, align 8
  %63 = getelementptr inbounds { ptr, i64 }, ptr %_18, i32 0, i32 1
  store i64 %ptr.1, ptr %63, align 8
  %64 = getelementptr inbounds { ptr, i64 }, ptr %_18, i32 0, i32 0
  %65 = load ptr, ptr %64, align 8, !nonnull !1, !noundef !1
  %66 = getelementptr inbounds { ptr, i64 }, ptr %_18, i32 0, i32 1
  %67 = load i64, ptr %66, align 8, !noundef !1
  %68 = getelementptr inbounds { ptr, i64 }, ptr %2, i32 0, i32 0
  store ptr %65, ptr %68, align 8
  %69 = getelementptr inbounds { ptr, i64 }, ptr %2, i32 0, i32 1
  store i64 %67, ptr %69, align 8
  br label %bb10

bb9:                                              ; preds = %bb6
  store ptr null, ptr %2, align 8
  br label %bb10

bb8:                                              ; No predecessors!
  unreachable

bb10:                                             ; preds = %bb2, %bb7, %bb9
  %70 = getelementptr inbounds { ptr, i64 }, ptr %2, i32 0, i32 0
  %71 = load ptr, ptr %70, align 8, !noundef !1
  %72 = getelementptr inbounds { ptr, i64 }, ptr %2, i32 0, i32 1
  %73 = load i64, ptr %72, align 8
  %74 = insertvalue { ptr, i64 } poison, ptr %71, 0
  %75 = insertvalue { ptr, i64 } %74, i64 %73, 1
  ret { ptr, i64 } %75
}

; alloc::raw_vec::RawVec<T,A>::allocate_in
; Function Attrs: uwtable
define { i64, ptr } @"_ZN5alloc7raw_vec19RawVec$LT$T$C$A$GT$11allocate_in17hf199c76effe553b9E"(i64 %capacity, i1 zeroext %0) unnamed_addr #1 personality ptr @rust_eh_personality {
start:
  %1 = alloca { ptr, i32 }, align 8
  %_48 = alloca ptr, align 8
  %_30 = alloca ptr, align 8
  %_29 = alloca ptr, align 8
  %self = alloca ptr, align 8
  %_24 = alloca ptr, align 8
  %result = alloca { ptr, i64 }, align 8
  %_12 = alloca { i64, i64 }, align 8
  %_8 = alloca { i64, i64 }, align 8
  %_4 = alloca i8, align 1
  %2 = alloca { i64, ptr }, align 8
  %alloc = alloca %"alloc::alloc::Global", align 1
  %init = alloca i8, align 1
  %3 = zext i1 %0 to i8
  store i8 %3, ptr %init, align 1
  br i1 false, label %bb1, label %bb2

bb2:                                              ; preds = %start
  %_5 = icmp eq i64 %capacity, 0
  %4 = zext i1 %_5 to i8
  store i8 %4, ptr %_4, align 1
  br label %bb3

bb1:                                              ; preds = %start
  store i8 1, ptr %_4, align 1
  br label %bb3

bb3:                                              ; preds = %bb2, %bb1
  %5 = load i8, ptr %_4, align 1, !range !4, !noundef !1
  %6 = trunc i8 %5 to i1
  br i1 %6, label %bb4, label %bb5

bb5:                                              ; preds = %bb3
; invoke core::alloc::layout::Layout::array::inner
  %7 = invoke { i64, i64 } @_ZN4core5alloc6layout6Layout5array5inner17h28025f9c9078e573E(i64 1, i64 1, i64 %capacity)
          to label %bb22 unwind label %cleanup

bb4:                                              ; preds = %bb3
  store ptr inttoptr (i64 1 to ptr), ptr %_30, align 8
  %8 = load ptr, ptr %_30, align 8, !nonnull !1, !noundef !1
  store ptr %8, ptr %_29, align 8
  %9 = load ptr, ptr %_29, align 8, !nonnull !1, !noundef !1
  %10 = getelementptr inbounds { i64, ptr }, ptr %2, i32 0, i32 1
  store ptr %9, ptr %10, align 8
  store i64 0, ptr %2, align 8
  br label %bb18

bb18:                                             ; preds = %bb17, %bb4
  %11 = getelementptr inbounds { i64, ptr }, ptr %2, i32 0, i32 0
  %12 = load i64, ptr %11, align 8, !noundef !1
  %13 = getelementptr inbounds { i64, ptr }, ptr %2, i32 0, i32 1
  %14 = load ptr, ptr %13, align 8, !nonnull !1, !noundef !1
  %15 = insertvalue { i64, ptr } poison, i64 %12, 0
  %16 = insertvalue { i64, ptr } %15, ptr %14, 1
  ret { i64, ptr } %16

bb21:                                             ; preds = %cleanup
  br i1 true, label %bb20, label %bb19

cleanup:                                          ; preds = %bb16, %bb12, %bb11, %bb9, %bb6, %bb5
  %17 = landingpad { ptr, i32 }
          cleanup
  %18 = extractvalue { ptr, i32 } %17, 0
  %19 = extractvalue { ptr, i32 } %17, 1
  %20 = getelementptr inbounds { ptr, i32 }, ptr %1, i32 0, i32 0
  store ptr %18, ptr %20, align 8
  %21 = getelementptr inbounds { ptr, i32 }, ptr %1, i32 0, i32 1
  store i32 %19, ptr %21, align 8
  br label %bb21

bb22:                                             ; preds = %bb5
  store { i64, i64 } %7, ptr %_8, align 8
  %22 = getelementptr inbounds { i64, i64 }, ptr %_8, i32 0, i32 1
  %23 = load i64, ptr %22, align 8, !range !6, !noundef !1
  %24 = icmp eq i64 %23, 0
  %_9 = select i1 %24, i64 1, i64 0
  %25 = icmp eq i64 %_9, 0
  br i1 %25, label %bb8, label %bb6

bb8:                                              ; preds = %bb22
  %26 = getelementptr inbounds { i64, i64 }, ptr %_8, i32 0, i32 0
  %layout.0 = load i64, ptr %26, align 8, !noundef !1
  %27 = getelementptr inbounds { i64, i64 }, ptr %_8, i32 0, i32 1
  %layout.1 = load i64, ptr %27, align 8, !range !5, !noundef !1
  %28 = getelementptr inbounds { i64, i64 }, ptr %_12, i32 0, i32 1
  store i64 -9223372036854775807, ptr %28, align 8
  %29 = getelementptr inbounds { i64, i64 }, ptr %_12, i32 0, i32 1
  %30 = load i64, ptr %29, align 8, !range !7, !noundef !1
  %31 = icmp eq i64 %30, -9223372036854775807
  %_15 = select i1 %31, i64 0, i64 1
  %32 = icmp eq i64 %_15, 0
  br i1 %32, label %bb10, label %bb9

bb6:                                              ; preds = %bb22
; invoke alloc::raw_vec::capacity_overflow
  invoke void @_ZN5alloc7raw_vec17capacity_overflow17h34f49f549a9b596cE() #12
          to label %unreachable unwind label %cleanup

unreachable:                                      ; preds = %bb16, %bb9, %bb6
  unreachable

bb10:                                             ; preds = %bb8
  %33 = load i8, ptr %init, align 1, !range !4, !noundef !1
  %34 = trunc i8 %33 to i1
  %_18 = zext i1 %34 to i64
  %35 = icmp eq i64 %_18, 0
  br i1 %35, label %bb12, label %bb11

bb9:                                              ; preds = %bb8
; invoke alloc::raw_vec::capacity_overflow
  invoke void @_ZN5alloc7raw_vec17capacity_overflow17h34f49f549a9b596cE() #12
          to label %unreachable unwind label %cleanup

bb12:                                             ; preds = %bb10
; invoke <alloc::alloc::Global as core::alloc::Allocator>::allocate
  %36 = invoke { ptr, i64 } @"_ZN63_$LT$alloc..alloc..Global$u20$as$u20$core..alloc..Allocator$GT$8allocate17h2ac615bc5043c17eE"(ptr align 1 %alloc, i64 %layout.0, i64 %layout.1)
          to label %bb13 unwind label %cleanup

bb11:                                             ; preds = %bb10
; invoke <alloc::alloc::Global as core::alloc::Allocator>::allocate_zeroed
  %37 = invoke { ptr, i64 } @"_ZN63_$LT$alloc..alloc..Global$u20$as$u20$core..alloc..Allocator$GT$15allocate_zeroed17h386ac20c7d622e06E"(ptr align 1 %alloc, i64 %layout.0, i64 %layout.1)
          to label %bb14 unwind label %cleanup

bb14:                                             ; preds = %bb11
  store { ptr, i64 } %37, ptr %result, align 8
  br label %bb15

bb15:                                             ; preds = %bb13, %bb14
  %38 = load ptr, ptr %result, align 8, !noundef !1
  %39 = ptrtoint ptr %38 to i64
  %40 = icmp eq i64 %39, 0
  %_21 = select i1 %40, i64 1, i64 0
  %41 = icmp eq i64 %_21, 0
  br i1 %41, label %bb17, label %bb16

bb13:                                             ; preds = %bb12
  store { ptr, i64 } %36, ptr %result, align 8
  br label %bb15

bb17:                                             ; preds = %bb15
  %42 = getelementptr inbounds { ptr, i64 }, ptr %result, i32 0, i32 0
  %ptr.0 = load ptr, ptr %42, align 8, !nonnull !1, !noundef !1
  %43 = getelementptr inbounds { ptr, i64 }, ptr %result, i32 0, i32 1
  %ptr.1 = load i64, ptr %43, align 8, !noundef !1
  store ptr %ptr.0, ptr %self, align 8
  %_47 = load ptr, ptr %self, align 8, !noundef !1
  store ptr %_47, ptr %_48, align 8
  %44 = load ptr, ptr %_48, align 8, !nonnull !1, !noundef !1
  store ptr %44, ptr %_24, align 8
  %45 = load ptr, ptr %_24, align 8, !nonnull !1, !noundef !1
  %46 = getelementptr inbounds { i64, ptr }, ptr %2, i32 0, i32 1
  store ptr %45, ptr %46, align 8
  store i64 %capacity, ptr %2, align 8
  br label %bb18

bb16:                                             ; preds = %bb15
; invoke alloc::alloc::handle_alloc_error
  invoke void @_ZN5alloc5alloc18handle_alloc_error17h59927528c78f7d16E(i64 %layout.0, i64 %layout.1) #12
          to label %unreachable unwind label %cleanup

bb7:                                              ; No predecessors!
  unreachable

bb19:                                             ; preds = %bb20, %bb21
  %47 = load ptr, ptr %1, align 8, !noundef !1
  %48 = getelementptr inbounds { ptr, i32 }, ptr %1, i32 0, i32 1
  %49 = load i32, ptr %48, align 8, !noundef !1
  %50 = insertvalue { ptr, i32 } poison, ptr %47, 0
  %51 = insertvalue { ptr, i32 } %50, i32 %49, 1
  resume { ptr, i32 } %51

bb20:                                             ; preds = %bb21
  br label %bb19
}

; alloc::raw_vec::RawVec<T,A>::current_memory
; Function Attrs: uwtable
define void @"_ZN5alloc7raw_vec19RawVec$LT$T$C$A$GT$14current_memory17h78baddf6f1d6fa95E"(ptr sret(%"core::option::Option<(core::ptr::non_null::NonNull<u8>, core::alloc::layout::Layout)>") %0, ptr align 8 %self) unnamed_addr #1 {
start:
  %1 = alloca i64, align 8
  %_27 = alloca ptr, align 8
  %self2 = alloca ptr, align 8
  %self1 = alloca ptr, align 8
  %_12 = alloca ptr, align 8
  %_11 = alloca { ptr, { i64, i64 } }, align 8
  %layout = alloca { i64, i64 }, align 8
  %_2 = alloca i8, align 1
  br i1 false, label %bb1, label %bb2

bb2:                                              ; preds = %start
  %_4 = load i64, ptr %self, align 8, !noundef !1
  %_3 = icmp eq i64 %_4, 0
  %2 = zext i1 %_3 to i8
  store i8 %2, ptr %_2, align 1
  br label %bb3

bb1:                                              ; preds = %start
  store i8 1, ptr %_2, align 1
  br label %bb3

bb3:                                              ; preds = %bb2, %bb1
  %3 = load i8, ptr %_2, align 1, !range !4, !noundef !1
  %4 = trunc i8 %3 to i1
  br i1 %4, label %bb4, label %bb5

bb5:                                              ; preds = %bb3
  %rhs = load i64, ptr %self, align 8, !noundef !1
  %5 = mul nuw i64 1, %rhs
  store i64 %5, ptr %1, align 8
  %size = load i64, ptr %1, align 8, !noundef !1
  store i64 %size, ptr %layout, align 8
  %6 = getelementptr inbounds { i64, i64 }, ptr %layout, i32 0, i32 1
  store i64 1, ptr %6, align 8
  %7 = getelementptr inbounds { i64, ptr }, ptr %self, i32 0, i32 1
  %self3 = load ptr, ptr %7, align 8, !nonnull !1, !noundef !1
  store ptr %self3, ptr %self2, align 8
  %_26 = load ptr, ptr %self2, align 8, !noundef !1
  store ptr %_26, ptr %_27, align 8
  %8 = load ptr, ptr %_27, align 8, !nonnull !1, !noundef !1
  store ptr %8, ptr %self1, align 8
  %self4 = load ptr, ptr %self1, align 8, !nonnull !1, !noundef !1
  store ptr %self4, ptr %_12, align 8
  %9 = load ptr, ptr %_12, align 8, !nonnull !1, !noundef !1
  store ptr %9, ptr %_11, align 8
  %10 = getelementptr inbounds { i64, i64 }, ptr %layout, i32 0, i32 0
  %11 = load i64, ptr %10, align 8, !noundef !1
  %12 = getelementptr inbounds { i64, i64 }, ptr %layout, i32 0, i32 1
  %13 = load i64, ptr %12, align 8, !range !5, !noundef !1
  %14 = getelementptr inbounds { ptr, { i64, i64 } }, ptr %_11, i32 0, i32 1
  %15 = getelementptr inbounds { i64, i64 }, ptr %14, i32 0, i32 0
  store i64 %11, ptr %15, align 8
  %16 = getelementptr inbounds { i64, i64 }, ptr %14, i32 0, i32 1
  store i64 %13, ptr %16, align 8
  call void @llvm.memcpy.p0.p0.i64(ptr align 8 %0, ptr align 8 %_11, i64 24, i1 false)
  br label %bb6

bb4:                                              ; preds = %bb3
  %17 = getelementptr inbounds %"core::option::Option<(core::ptr::non_null::NonNull<u8>, core::alloc::layout::Layout)>", ptr %0, i32 0, i32 1
  store i64 0, ptr %17, align 8
  br label %bb6

bb6:                                              ; preds = %bb5, %bb4
  ret void
}

; <alloc::alloc::Global as core::alloc::Allocator>::deallocate
; Function Attrs: inlinehint uwtable
define internal void @"_ZN63_$LT$alloc..alloc..Global$u20$as$u20$core..alloc..Allocator$GT$10deallocate17hee37da1ea8571a55E"(ptr align 1 %self, ptr %ptr, i64 %0, i64 %1) unnamed_addr #0 {
start:
  %_14 = alloca i64, align 8
  %layout1 = alloca { i64, i64 }, align 8
  %layout = alloca { i64, i64 }, align 8
  %2 = getelementptr inbounds { i64, i64 }, ptr %layout, i32 0, i32 0
  store i64 %0, ptr %2, align 8
  %3 = getelementptr inbounds { i64, i64 }, ptr %layout, i32 0, i32 1
  store i64 %1, ptr %3, align 8
  %_4 = load i64, ptr %layout, align 8, !noundef !1
  %4 = icmp eq i64 %_4, 0
  br i1 %4, label %bb2, label %bb1

bb2:                                              ; preds = %start
  br label %bb3

bb1:                                              ; preds = %start
  %5 = getelementptr inbounds { i64, i64 }, ptr %layout, i32 0, i32 0
  %6 = load i64, ptr %5, align 8, !noundef !1
  %7 = getelementptr inbounds { i64, i64 }, ptr %layout, i32 0, i32 1
  %8 = load i64, ptr %7, align 8, !range !5, !noundef !1
  %9 = getelementptr inbounds { i64, i64 }, ptr %layout1, i32 0, i32 0
  store i64 %6, ptr %9, align 8
  %10 = getelementptr inbounds { i64, i64 }, ptr %layout1, i32 0, i32 1
  store i64 %8, ptr %10, align 8
  %_9 = load i64, ptr %layout1, align 8, !noundef !1
  %11 = getelementptr inbounds { i64, i64 }, ptr %layout1, i32 0, i32 1
  %self2 = load i64, ptr %11, align 8, !range !5, !noundef !1
  store i64 %self2, ptr %_14, align 8
  %_15 = load i64, ptr %_14, align 8, !range !5, !noundef !1
  %_16 = icmp uge i64 -9223372036854775808, %_15
  call void @llvm.assume(i1 %_16)
  %_17 = icmp ule i64 1, %_15
  call void @llvm.assume(i1 %_17)
  call void @__rust_dealloc(ptr %ptr, i64 %_9, i64 %_15) #15
  br label %bb3

bb3:                                              ; preds = %bb2, %bb1
  ret void
}

; <alloc::alloc::Global as core::alloc::Allocator>::allocate_zeroed
; Function Attrs: inlinehint uwtable
define internal { ptr, i64 } @"_ZN63_$LT$alloc..alloc..Global$u20$as$u20$core..alloc..Allocator$GT$15allocate_zeroed17h386ac20c7d622e06E"(ptr align 1 %self, i64 %layout.0, i64 %layout.1) unnamed_addr #0 {
start:
; call alloc::alloc::Global::alloc_impl
  %0 = call { ptr, i64 } @_ZN5alloc5alloc6Global10alloc_impl17h0f7ab19ee7e748c5E(ptr align 1 %self, i64 %layout.0, i64 %layout.1, i1 zeroext true)
  %1 = extractvalue { ptr, i64 } %0, 0
  %2 = extractvalue { ptr, i64 } %0, 1
  %3 = insertvalue { ptr, i64 } poison, ptr %1, 0
  %4 = insertvalue { ptr, i64 } %3, i64 %2, 1
  ret { ptr, i64 } %4
}

; <alloc::alloc::Global as core::alloc::Allocator>::allocate
; Function Attrs: inlinehint uwtable
define internal { ptr, i64 } @"_ZN63_$LT$alloc..alloc..Global$u20$as$u20$core..alloc..Allocator$GT$8allocate17h2ac615bc5043c17eE"(ptr align 1 %self, i64 %layout.0, i64 %layout.1) unnamed_addr #0 {
start:
; call alloc::alloc::Global::alloc_impl
  %0 = call { ptr, i64 } @_ZN5alloc5alloc6Global10alloc_impl17h0f7ab19ee7e748c5E(ptr align 1 %self, i64 %layout.0, i64 %layout.1, i1 zeroext false)
  %1 = extractvalue { ptr, i64 } %0, 0
  %2 = extractvalue { ptr, i64 } %0, 1
  %3 = insertvalue { ptr, i64 } poison, ptr %1, 0
  %4 = insertvalue { ptr, i64 } %3, i64 %2, 1
  ret { ptr, i64 } %4
}

; <alloc::vec::Vec<T,A> as core::ops::drop::Drop>::drop
; Function Attrs: uwtable
define void @"_ZN70_$LT$alloc..vec..Vec$LT$T$C$A$GT$$u20$as$u20$core..ops..drop..Drop$GT$4drop17h782ecd404021298dE"(ptr align 8 %self) unnamed_addr #1 {
start:
  %_11 = alloca { ptr, i64 }, align 8
  %_10 = alloca %"core::ptr::metadata::PtrRepr<[u8]>", align 8
  %0 = getelementptr inbounds { i64, ptr }, ptr %self, i32 0, i32 1
  %self1 = load ptr, ptr %0, align 8, !nonnull !1, !noundef !1
  %1 = getelementptr inbounds %"alloc::vec::Vec<u8>", ptr %self, i32 0, i32 1
  %len = load i64, ptr %1, align 8, !noundef !1
  store ptr %self1, ptr %_11, align 8
  %2 = getelementptr inbounds { ptr, i64 }, ptr %_11, i32 0, i32 1
  store i64 %len, ptr %2, align 8
  %3 = getelementptr inbounds { ptr, i64 }, ptr %_11, i32 0, i32 0
  %4 = load ptr, ptr %3, align 8, !noundef !1
  %5 = getelementptr inbounds { ptr, i64 }, ptr %_11, i32 0, i32 1
  %6 = load i64, ptr %5, align 8, !noundef !1
  %7 = getelementptr inbounds { ptr, i64 }, ptr %_10, i32 0, i32 0
  store ptr %4, ptr %7, align 8
  %8 = getelementptr inbounds { ptr, i64 }, ptr %_10, i32 0, i32 1
  store i64 %6, ptr %8, align 8
  %9 = getelementptr inbounds { ptr, i64 }, ptr %_10, i32 0, i32 0
  %_2.0 = load ptr, ptr %9, align 8, !noundef !1
  %10 = getelementptr inbounds { ptr, i64 }, ptr %_10, i32 0, i32 1
  %_2.1 = load i64, ptr %10, align 8, !noundef !1
  ret void
}

; <alloc::raw_vec::RawVec<T,A> as core::ops::drop::Drop>::drop
; Function Attrs: uwtable
define void @"_ZN77_$LT$alloc..raw_vec..RawVec$LT$T$C$A$GT$$u20$as$u20$core..ops..drop..Drop$GT$4drop17h5d541717a3b68fd0E"(ptr align 8 %self) unnamed_addr #1 {
start:
  %_2 = alloca %"core::option::Option<(core::ptr::non_null::NonNull<u8>, core::alloc::layout::Layout)>", align 8
; call alloc::raw_vec::RawVec<T,A>::current_memory
  call void @"_ZN5alloc7raw_vec19RawVec$LT$T$C$A$GT$14current_memory17h78baddf6f1d6fa95E"(ptr sret(%"core::option::Option<(core::ptr::non_null::NonNull<u8>, core::alloc::layout::Layout)>") %_2, ptr align 8 %self)
  %0 = getelementptr inbounds %"core::option::Option<(core::ptr::non_null::NonNull<u8>, core::alloc::layout::Layout)>", ptr %_2, i32 0, i32 1
  %1 = load i64, ptr %0, align 8, !range !6, !noundef !1
  %2 = icmp eq i64 %1, 0
  %_4 = select i1 %2, i64 0, i64 1
  %3 = icmp eq i64 %_4, 1
  br i1 %3, label %bb2, label %bb4

bb2:                                              ; preds = %start
  %ptr = load ptr, ptr %_2, align 8, !nonnull !1, !noundef !1
  %4 = getelementptr inbounds { ptr, { i64, i64 } }, ptr %_2, i32 0, i32 1
  %5 = getelementptr inbounds { i64, i64 }, ptr %4, i32 0, i32 0
  %layout.0 = load i64, ptr %5, align 8, !noundef !1
  %6 = getelementptr inbounds { i64, i64 }, ptr %4, i32 0, i32 1
  %layout.1 = load i64, ptr %6, align 8, !range !5, !noundef !1
; call <alloc::alloc::Global as core::alloc::Allocator>::deallocate
  call void @"_ZN63_$LT$alloc..alloc..Global$u20$as$u20$core..alloc..Allocator$GT$10deallocate17hee37da1ea8571a55E"(ptr align 1 %self, ptr %ptr, i64 %layout.0, i64 %layout.1)
  br label %bb4

bb4:                                              ; preds = %bb2, %start
  ret void
}

; probe1::probe
; Function Attrs: uwtable
define void @_ZN6probe15probe17hbdc082887e96f7ffE() unnamed_addr #1 {
start:
  %_7 = alloca [1 x { ptr, ptr }], align 8
  %_3 = alloca %"core::fmt::Arguments<'_>", align 8
  %res = alloca %"alloc::string::String", align 8
  %_1 = alloca %"alloc::string::String", align 8
; call core::fmt::ArgumentV1::new_lower_exp
  %0 = call { ptr, ptr } @_ZN4core3fmt10ArgumentV113new_lower_exp17h5a10113179b79380E(ptr align 8 @alloc_53973d2fe29b4adba8bb7390b5678745)
  %_8.0 = extractvalue { ptr, ptr } %0, 0
  %_8.1 = extractvalue { ptr, ptr } %0, 1
  %1 = getelementptr inbounds [1 x { ptr, ptr }], ptr %_7, i64 0, i64 0
  %2 = getelementptr inbounds { ptr, ptr }, ptr %1, i32 0, i32 0
  store ptr %_8.0, ptr %2, align 8
  %3 = getelementptr inbounds { ptr, ptr }, ptr %1, i32 0, i32 1
  store ptr %_8.1, ptr %3, align 8
; call core::fmt::Arguments::new_v1
  call void @_ZN4core3fmt9Arguments6new_v117h9f0f9e696a5d9db6E(ptr sret(%"core::fmt::Arguments<'_>") %_3, ptr align 8 @alloc_ffa3cdb3ae88e54a1cc225f31dd07672, i64 1, ptr align 8 %_7, i64 1)
; call alloc::fmt::format
  call void @_ZN5alloc3fmt6format17h722d38405f32a212E(ptr sret(%"alloc::string::String") %res, ptr %_3)
  call void @llvm.memcpy.p0.p0.i64(ptr align 8 %_1, ptr align 8 %res, i64 24, i1 false)
; call core::ptr::drop_in_place<alloc::string::String>
  call void @"_ZN4core3ptr42drop_in_place$LT$alloc..string..String$GT$17ha6acf269f4e1ddd7E"(ptr %_1)
  ret void
}

; core::fmt::num::imp::<impl core::fmt::LowerExp for isize>::fmt
; Function Attrs: uwtable
declare zeroext i1 @"_ZN4core3fmt3num3imp55_$LT$impl$u20$core..fmt..LowerExp$u20$for$u20$isize$GT$3fmt17h8935610bb16b6895E"(ptr align 8, ptr align 8) unnamed_addr #1

; core::panicking::panic_fmt
; Function Attrs: cold noinline noreturn uwtable
declare void @_ZN4core9panicking9panic_fmt17he268a5f53ffa4422E(ptr, ptr align 8) unnamed_addr #2

; Function Attrs: uwtable
declare i32 @rust_eh_personality(i32, i32, i64, ptr, ptr) unnamed_addr #1

; core::panicking::panic_cannot_unwind
; Function Attrs: cold noinline noreturn nounwind uwtable
declare void @_ZN4core9panicking19panic_cannot_unwind17h7d645fce4145e0f8E() unnamed_addr #3

; Function Attrs: nocallback nofree nosync nounwind willreturn memory(inaccessiblemem: readwrite)
declare void @llvm.assume(i1 noundef) #4

; Function Attrs: nocallback nofree nosync nounwind willreturn memory(none)
declare i1 @llvm.expect.i1(i1, i1) #5

; core::panicking::panic
; Function Attrs: cold noinline noreturn uwtable
declare void @_ZN4core9panicking5panic17h1042ba0fc6819e49E(ptr align 1, i64, ptr align 8) unnamed_addr #2

; Function Attrs: nocallback nofree nounwind willreturn memory(argmem: readwrite)
declare void @llvm.memcpy.p0.p0.i64(ptr noalias nocapture writeonly, ptr noalias nocapture readonly, i64, i1 immarg) #6

; alloc::fmt::format::format_inner
; Function Attrs: uwtable
declare void @_ZN5alloc3fmt6format12format_inner17h2233617862468319E(ptr sret(%"alloc::string::String"), ptr) unnamed_addr #1

; Function Attrs: nounwind allockind("alloc,zeroed,aligned") allocsize(0) uwtable
declare noalias ptr @__rust_alloc_zeroed(i64, i64 allocalign) unnamed_addr #7

; Function Attrs: nounwind allockind("alloc,uninitialized,aligned") allocsize(0) uwtable
declare noalias ptr @__rust_alloc(i64, i64 allocalign) unnamed_addr #8

; alloc::raw_vec::capacity_overflow
; Function Attrs: noreturn uwtable
declare void @_ZN5alloc7raw_vec17capacity_overflow17h34f49f549a9b596cE() unnamed_addr #9

; alloc::alloc::handle_alloc_error
; Function Attrs: cold noreturn uwtable
declare void @_ZN5alloc5alloc18handle_alloc_error17h59927528c78f7d16E(i64, i64) unnamed_addr #10

; Function Attrs: nounwind allockind("free") uwtable
declare void @__rust_dealloc(ptr allocptr, i64, i64) unnamed_addr #11

attributes #0 = { inlinehint uwtable "frame-pointer"="non-leaf" "target-cpu"="apple-a14" }
attributes #1 = { uwtable "frame-pointer"="non-leaf" "target-cpu"="apple-a14" }
attributes #2 = { cold noinline noreturn uwtable "frame-pointer"="non-leaf" "target-cpu"="apple-a14" }
attributes #3 = { cold noinline noreturn nounwind uwtable "frame-pointer"="non-leaf" "target-cpu"="apple-a14" }
attributes #4 = { nocallback nofree nosync nounwind willreturn memory(inaccessiblemem: readwrite) }
attributes #5 = { nocallback nofree nosync nounwind willreturn memory(none) }
attributes #6 = { nocallback nofree nounwind willreturn memory(argmem: readwrite) }
attributes #7 = { nounwind allockind("alloc,zeroed,aligned") allocsize(0) uwtable "alloc-family"="__rust_alloc" "frame-pointer"="non-leaf" "target-cpu"="apple-a14" }
attributes #8 = { nounwind allockind("alloc,uninitialized,aligned") allocsize(0) uwtable "alloc-family"="__rust_alloc" "frame-pointer"="non-leaf" "target-cpu"="apple-a14" }
attributes #9 = { noreturn uwtable "frame-pointer"="non-leaf" "target-cpu"="apple-a14" }
attributes #10 = { cold noreturn uwtable "frame-pointer"="non-leaf" "target-cpu"="apple-a14" }
attributes #11 = { nounwind allockind("free") uwtable "alloc-family"="__rust_alloc" "frame-pointer"="non-leaf" "target-cpu"="apple-a14" }
attributes #12 = { noreturn }
attributes #13 = { noinline }
attributes #14 = { noinline noreturn nounwind }
attributes #15 = { nounwind }

!llvm.module.flags = !{!0}

!0 = !{i32 8, !"PIC Level", i32 2}
!1 = !{}
!2 = !{i64 1}
!3 = !{i64 8}
!4 = !{i8 0, i8 2}
!5 = !{i64 1, i64 -9223372036854775807}
!6 = !{i64 0, i64 -9223372036854775807}
!7 = !{i64 0, i64 -9223372036854775806}
